target datalayout = "e-m:e-p270:32:32-p271:32:32-p272:64:64-i64:64-i128:128-f80:128-n8:16:32:64-S128"
target triple = "x86_64-pc-linux-gnu"

; Function Attrs: mustprogress nounwind uwtable
define hidden noundef ptr @_ZN12JvmtiEnvBase22get_JavaThread_or_nullEP7oopDesc(ptr noundef %0) #1 align 2 {
  %2 = alloca ptr, align 8
  %3 = alloca ptr, align 8
  %4 = alloca ptr, align 8
  %5 = alloca ptr, align 8
  %6 = alloca ptr, align 8
  store ptr %0, ptr %3, align 8
  %7 = load ptr, ptr %3, align 8
  %8 = call noundef ptr @_ZN23java_lang_VirtualThread14carrier_threadEP7oopDesc(ptr noundef %7)
  store ptr %8, ptr %4, align 8
  %9 = load ptr, ptr %4, align 8
  %10 = icmp eq ptr %9, null
  br i1 %10, label %11, label %12

11:                                               ; preds = %1
  store ptr null, ptr %2, align 8
  br label %26

12:                                               ; preds = %1
  %13 = load ptr, ptr %4, align 8
  %14 = call noundef ptr @_ZN16java_lang_Thread6threadEP7oopDesc(ptr noundef %13)
  store ptr %14, ptr %5, align 8
  %15 = load ptr, ptr %5, align 8
  call void @_ZN17StackWatermarkSet16start_processingEP10JavaThread18StackWatermarkKind(ptr noundef %15, i32 noundef 0)
  %16 = load ptr, ptr %3, align 8
  %17 = call noundef ptr @_ZN23java_lang_VirtualThread12continuationEP7oopDesc(ptr noundef %16)
  store ptr %17, ptr %6, align 8
  %18 = load ptr, ptr %5, align 8
  %19 = load ptr, ptr %6, align 8
  %20 = call noundef zeroext i1 @_ZN12Continuation23is_continuation_mountedEP10JavaThreadP7oopDesc(ptr noundef %18, ptr noundef %19)
  br i1 %20, label %21, label %23

21:                                               ; preds = %12
  %22 = load ptr, ptr %5, align 8
  br label %24

23:                                               ; preds = %12
  br label %24

24:                                               ; preds = %23, %21
  %25 = phi ptr [ %22, %21 ], [ null, %23 ]
  store ptr %25, ptr %2, align 8
  br label %26

26:                                               ; preds = %24, %11
  %27 = load ptr, ptr %2, align 8
  ret ptr %27
}