; Function Attrs: mustprogress nounwind uwtable
define hidden noundef ptr @_ZN12JvmtiEnvBase22get_JavaThread_or_nullEP7oopDesc(ptr noundef %0) local_unnamed_addr #0 align 2 {
  %2 = tail call noundef ptr @_ZN23java_lang_VirtualThread14carrier_threadEP7oopDesc(ptr noundef %0) #18
  %3 = icmp eq ptr %2, null
  br i1 %3, label %9, label %4

4:                                                ; preds = %1
  %5 = tail call noundef ptr @_ZN16java_lang_Thread6threadEP7oopDesc(ptr noundef nonnull %2) #18
  tail call void @_ZN17StackWatermarkSet16start_processingEP10JavaThread18StackWatermarkKind(ptr noundef %5, i32 noundef 0) #18
  %6 = tail call noundef ptr @_ZN23java_lang_VirtualThread12continuationEP7oopDesc(ptr noundef %0) #18
  %7 = tail call noundef zeroext i1 @_ZN12Continuation23is_continuation_mountedEP10JavaThreadP7oopDesc(ptr noundef %5, ptr noundef %6) #18
  %8 = select i1 %7, ptr %5, ptr null
  br label %9

9:                                                ; preds = %1, %4
  %.0 = phi ptr [ %8, %4 ], [ null, %1 ]
  ret ptr %.0
}